target datalayout = "e-m:e-p270:32:32-p271:32:32-p272:64:64-i64:64-i128:128-f80:128-n8:16:32:64-S128"
target triple = "x86_64-pc-linux-gnu"

%struct.H5C_class_t = type { i32, ptr, i32, i32, ptr, ptr, ptr, ptr, ptr, ptr, ptr, ptr, ptr, ptr }
%struct.H5B2_leaf_t = type { %struct.H5C_cache_entry_t, ptr, ptr, i16, ptr, ptr, i64 }
%struct.H5C_cache_entry_t = type { ptr, i64, i64, ptr, i8, ptr, i8, i8, i8, i8, i32, i8, i8, i8, i8, i8, i32, ptr, i32, i32, i32, i32, i32, i8, i8, ptr, ptr, ptr, ptr, ptr, ptr, i8, i32, i8, i64, ptr, i64, i64, i32, i8, i32, i32, i8, ptr, ptr, ptr }
%struct.H5B2_hdr_t = type { %struct.H5C_cache_entry_t, %struct.H5B2_node_ptr_t, i8, i8, i32, i32, i16, i8, ptr, i64, i64, i64, i64, i8, i8, i8, ptr, ptr, ptr, ptr, ptr, ptr, ptr, i8, ptr, ptr, i64, ptr, ptr }
%struct.H5B2_node_ptr_t = type { i64, i16, i64 }
%struct.H5B2_class_t = type { i32, ptr, i64, ptr, ptr, ptr, ptr, ptr, ptr, ptr }
%struct.H5B2_internal_t = type { %struct.H5C_cache_entry_t, ptr, ptr, ptr, i16, i16, ptr, ptr, i64 }

@.str.1 = private unnamed_addr constant [102 x i8] c"generated/home/dtcxzyw/WorkSpace/Projects/compilers/llvm-opt-benchmark/bench/hdf5/hdf5/src/H5B2leaf.c\00", align 1
@H5E_BTREE_g = external global i64, align 8
@H5AC_BT2_LEAF = external constant [1 x %struct.H5C_class_t], align 16
@H5E_CANTPROTECT_g = external global i64, align 8
@.str.11 = private unnamed_addr constant [35 x i8] c"unable to protect B-tree leaf node\00", align 1
@H5E_CANTUNPROTECT_g = external global i64, align 8
@H5AC_BT2_INT = external constant [1 x %struct.H5C_class_t], align 16
@__func__.H5B2__swap_leaf = private unnamed_addr constant [16 x i8] c"H5B2__swap_leaf\00", align 1
@.str.27 = private unnamed_addr constant [39 x i8] c"unable to protect B-tree internal node\00", align 1
@.str.28 = private unnamed_addr constant [36 x i8] c"unable to release B-tree child node\00", align 1

; Function Attrs: nounwind uwtable
define i32 @H5B2__swap_leaf(ptr noundef %0, i16 noundef zeroext %1, ptr noundef %2, ptr noundef %3, i32 noundef %4, ptr noundef %5) #0 {
  %7 = alloca ptr, align 8
  %8 = alloca i16, align 2
  %9 = alloca ptr, align 8
  %10 = alloca ptr, align 8
  %11 = alloca i32, align 4
  %12 = alloca ptr, align 8
  %13 = alloca ptr, align 8
  %14 = alloca i64, align 8
  %15 = alloca ptr, align 8
  %16 = alloca ptr, align 8
  %17 = alloca i32, align 4
  %18 = alloca i8, align 1
  %19 = alloca ptr, align 8
  %20 = alloca ptr, align 8
  store ptr %0, ptr %7, align 8
  store i16 %1, ptr %8, align 2
  store ptr %2, ptr %9, align 8
  store ptr %3, ptr %10, align 8
  store i32 %4, ptr %11, align 4
  store ptr %5, ptr %12, align 8
  store i64 -1, ptr %14, align 8
  store ptr null, ptr %15, align 8
  store i32 0, ptr %17, align 4
  store i8 0, ptr %18, align 1
  %21 = load i16, ptr %8, align 2
  %22 = zext i16 %21 to i32
  %23 = icmp sgt i32 %22, 1
  br i1 %23, label %24, label %67

24:                                               ; preds = %6
  store ptr @H5AC_BT2_INT, ptr %13, align 8
  %25 = load ptr, ptr %7, align 8
  %26 = load ptr, ptr %9, align 8
  %27 = load ptr, ptr %9, align 8
  %28 = getelementptr inbounds %struct.H5B2_internal_t, ptr %27, i32 0, i32 3
  %29 = load ptr, ptr %28, align 8
  %30 = load i32, ptr %11, align 4
  %31 = zext i32 %30 to i64
  %32 = getelementptr inbounds %struct.H5B2_node_ptr_t, ptr %29, i64 %31
  %33 = load i16, ptr %8, align 2
  %34 = zext i16 %33 to i32
  %35 = sub nsw i32 %34, 1
  %36 = trunc i32 %35 to i16
  %37 = call ptr @H5B2__protect_internal(ptr noundef %25, ptr noundef %26, ptr noundef %32, i16 noundef zeroext %36, i1 noundef zeroext false, i32 noundef 0)
  store ptr %37, ptr %19, align 8
  %38 = icmp eq ptr null, %37
  br i1 %38, label %39, label %54

39:                                               ; preds = %24
  br label %40

40:                                               ; preds = %39
  br label %41

41:                                               ; preds = %40
  br label %42

42:                                               ; preds = %41
  %43 = load i64, ptr @H5E_BTREE_g, align 8
  %44 = load i64, ptr @H5E_CANTPROTECT_g, align 8
  %45 = call i32 (ptr, ptr, i32, i64, i64, ptr, ...) @H5E_printf_stack(ptr noundef @.str.1, ptr noundef @__func__.H5B2__swap_leaf, i32 noundef 615, i64 noundef %43, i64 noundef %44, ptr noundef @.str.27)
  br label %46

46:                                               ; preds = %42
  store i8 1, ptr %18, align 1
  %47 = load i8, ptr %18, align 1
  %48 = trunc i8 %47 to i1
  %49 = zext i1 %48 to i8
  store i8 %49, ptr %18, align 1
  br label %50

50:                                               ; preds = %46
  br label %51

51:                                               ; preds = %50
  store i32 -1, ptr %17, align 4
  br label %147

52:                                               ; No predecessors!
  br label %53

53:                                               ; preds = %52
  br label %54

54:                                               ; preds = %53, %24
  %55 = load ptr, ptr %9, align 8
  %56 = getelementptr inbounds %struct.H5B2_internal_t, ptr %55, i32 0, i32 3
  %57 = load ptr, ptr %56, align 8
  %58 = load i32, ptr %11, align 4
  %59 = zext i32 %58 to i64
  %60 = getelementptr inbounds %struct.H5B2_node_ptr_t, ptr %57, i64 %59
  %61 = getelementptr inbounds %struct.H5B2_node_ptr_t, ptr %60, i32 0, i32 0
  %62 = load i64, ptr %61, align 8
  store i64 %62, ptr %14, align 8
  %63 = load ptr, ptr %19, align 8
  store ptr %63, ptr %15, align 8
  %64 = load ptr, ptr %19, align 8
  %65 = getelementptr inbounds %struct.H5B2_internal_t, ptr %64, i32 0, i32 2
  %66 = load ptr, ptr %65, align 8
  store ptr %66, ptr %16, align 8
  br label %106

67:                                               ; preds = %6
  store ptr @H5AC_BT2_LEAF, ptr %13, align 8
  %68 = load ptr, ptr %7, align 8
  %69 = load ptr, ptr %9, align 8
  %70 = load ptr, ptr %9, align 8
  %71 = getelementptr inbounds %struct.H5B2_internal_t, ptr %70, i32 0, i32 3
  %72 = load ptr, ptr %71, align 8
  %73 = load i32, ptr %11, align 4
  %74 = zext i32 %73 to i64
  %75 = getelementptr inbounds %struct.H5B2_node_ptr_t, ptr %72, i64 %74
  %76 = call ptr @H5B2__protect_leaf(ptr noundef %68, ptr noundef %69, ptr noundef %75, i1 noundef zeroext false, i32 noundef 0)
  store ptr %76, ptr %20, align 8
  %77 = icmp eq ptr null, %76
  br i1 %77, label %78, label %93

78:                                               ; preds = %67
  br label %79

79:                                               ; preds = %78
  br label %80

80:                                               ; preds = %79
  br label %81

81:                                               ; preds = %80
  %82 = load i64, ptr @H5E_BTREE_g, align 8
  %83 = load i64, ptr @H5E_CANTPROTECT_g, align 8
  %84 = call i32 (ptr, ptr, i32, i64, i64, ptr, ...) @H5E_printf_stack(ptr noundef @.str.1, ptr noundef @__func__.H5B2__swap_leaf, i32 noundef 631, i64 noundef %82, i64 noundef %83, ptr noundef @.str.11)
  br label %85

85:                                               ; preds = %81
  store i8 1, ptr %18, align 1
  %86 = load i8, ptr %18, align 1
  %87 = trunc i8 %86 to i1
  %88 = zext i1 %87 to i8
  store i8 %88, ptr %18, align 1
  br label %89

89:                                               ; preds = %85
  br label %90

90:                                               ; preds = %89
  store i32 -1, ptr %17, align 4
  br label %147

91:                                               ; No predecessors!
  br label %92

92:                                               ; preds = %91
  br label %93

93:                                               ; preds = %92, %67
  %94 = load ptr, ptr %9, align 8
  %95 = getelementptr inbounds %struct.H5B2_internal_t, ptr %94, i32 0, i32 3
  %96 = load ptr, ptr %95, align 8
  %97 = load i32, ptr %11, align 4
  %98 = zext i32 %97 to i64
  %99 = getelementptr inbounds %struct.H5B2_node_ptr_t, ptr %96, i64 %98
  %100 = getelementptr inbounds %struct.H5B2_node_ptr_t, ptr %99, i32 0, i32 0
  %101 = load i64, ptr %100, align 8
  store i64 %101, ptr %14, align 8
  %102 = load ptr, ptr %20, align 8
  store ptr %102, ptr %15, align 8
  %103 = load ptr, ptr %20, align 8
  %104 = getelementptr inbounds %struct.H5B2_leaf_t, ptr %103, i32 0, i32 2
  %105 = load ptr, ptr %104, align 8
  store ptr %105, ptr %16, align 8
  br label %106

106:                                              ; preds = %93, %54
  %107 = load ptr, ptr %7, align 8
  %108 = getelementptr inbounds %struct.H5B2_hdr_t, ptr %107, i32 0, i32 18
  %109 = load ptr, ptr %108, align 8
  %110 = load ptr, ptr %16, align 8
  %111 = load ptr, ptr %7, align 8
  %112 = getelementptr inbounds %struct.H5B2_hdr_t, ptr %111, i32 0, i32 19
  %113 = load ptr, ptr %112, align 8
  %114 = getelementptr inbounds i64, ptr %113, i64 0
  %115 = load i64, ptr %114, align 8
  %116 = getelementptr inbounds i8, ptr %110, i64 %115
  %117 = load ptr, ptr %7, align 8
  %118 = getelementptr inbounds %struct.H5B2_hdr_t, ptr %117, i32 0, i32 27
  %119 = load ptr, ptr %118, align 8
  %120 = getelementptr inbounds %struct.H5B2_class_t, ptr %119, i32 0, i32 2
  %121 = load i64, ptr %120, align 8
  call void @llvm.memcpy.p0.p0.i64(ptr align 1 %109, ptr align 1 %116, i64 %121, i1 false)
  %122 = load ptr, ptr %16, align 8
  %123 = load ptr, ptr %7, align 8
  %124 = getelementptr inbounds %struct.H5B2_hdr_t, ptr %123, i32 0, i32 19
  %125 = load ptr, ptr %124, align 8
  %126 = getelementptr inbounds i64, ptr %125, i64 0
  %127 = load i64, ptr %126, align 8
  %128 = getelementptr inbounds i8, ptr %122, i64 %127
  %129 = load ptr, ptr %12, align 8
  %130 = load ptr, ptr %7, align 8
  %131 = getelementptr inbounds %struct.H5B2_hdr_t, ptr %130, i32 0, i32 27
  %132 = load ptr, ptr %131, align 8
  %133 = getelementptr inbounds %struct.H5B2_class_t, ptr %132, i32 0, i32 2
  %134 = load i64, ptr %133, align 8
  call void @llvm.memcpy.p0.p0.i64(ptr align 1 %128, ptr align 1 %129, i64 %134, i1 false)
  %135 = load ptr, ptr %12, align 8
  %136 = load ptr, ptr %7, align 8
  %137 = getelementptr inbounds %struct.H5B2_hdr_t, ptr %136, i32 0, i32 18
  %138 = load ptr, ptr %137, align 8
  %139 = load ptr, ptr %7, align 8
  %140 = getelementptr inbounds %struct.H5B2_hdr_t, ptr %139, i32 0, i32 27
  %141 = load ptr, ptr %140, align 8
  %142 = getelementptr inbounds %struct.H5B2_class_t, ptr %141, i32 0, i32 2
  %143 = load i64, ptr %142, align 8
  call void @llvm.memcpy.p0.p0.i64(ptr align 1 %135, ptr align 1 %138, i64 %143, i1 false)
  %144 = load ptr, ptr %10, align 8
  %145 = load i32, ptr %144, align 4
  %146 = or i32 %145, 2
  store i32 %146, ptr %144, align 4
  br label %147

147:                                              ; preds = %106, %90, %51
  %148 = load ptr, ptr %15, align 8
  %149 = icmp ne ptr %148, null
  br i1 %149, label %150, label %172

150:                                              ; preds = %147
  %151 = load ptr, ptr %7, align 8
  %152 = getelementptr inbounds %struct.H5B2_hdr_t, ptr %151, i32 0, i32 8
  %153 = load ptr, ptr %152, align 8
  %154 = load ptr, ptr %13, align 8
  %155 = load i64, ptr %14, align 8
  %156 = load ptr, ptr %15, align 8
  %157 = call i32 @H5AC_unprotect(ptr noundef %153, ptr noundef %154, i64 noundef %155, ptr noundef %156, i32 noundef 2)
  %158 = icmp slt i32 %157, 0
  br i1 %158, label %159, label %172

159:                                              ; preds = %150
  br label %160

160:                                              ; preds = %159
  br label %161

161:                                              ; preds = %160
  br label %162

162:                                              ; preds = %161
  %163 = load i64, ptr @H5E_BTREE_g, align 8
  %164 = load i64, ptr @H5E_CANTUNPROTECT_g, align 8
  %165 = call i32 (ptr, ptr, i32, i64, i64, ptr, ...) @H5E_printf_stack(ptr noundef @.str.1, ptr noundef @__func__.H5B2__swap_leaf, i32 noundef 658, i64 noundef %163, i64 noundef %164, ptr noundef @.str.28)
  br label %166

166:                                              ; preds = %162
  store i8 1, ptr %18, align 1
  %167 = load i8, ptr %18, align 1
  %168 = trunc i8 %167 to i1
  %169 = zext i1 %168 to i8
  store i8 %169, ptr %18, align 1
  br label %170

170:                                              ; preds = %166
  store i32 -1, ptr %17, align 4
  br label %171

171:                                              ; preds = %170
  br label %172

172:                                              ; preds = %171, %150, %147
  %173 = load i32, ptr %17, align 4
  ret i32 %173
}