; Function Attrs: nounwind uwtable
define range(i32 -1, 1) i32 @H5B2__swap_leaf(ptr noundef %0, i16 noundef zeroext %1, ptr noundef %2, ptr noundef captures(none) %3, i32 noundef %4, ptr noundef captures(none) %5) local_unnamed_addr #0 {
  %7 = icmp ugt i16 %1, 1
  %8 = getelementptr inbounds nuw i8, ptr %2, i64 264
  %9 = load ptr, ptr %8, align 8
  %10 = zext i32 %4 to i64
  %11 = getelementptr inbounds nuw %struct.H5B2_node_ptr_t, ptr %9, i64 %10
  br i1 %7, label %12, label %20

12:                                               ; preds = %6
  %13 = add i16 %1, -1
  %14 = tail call ptr @H5B2__protect_internal(ptr noundef %0, ptr noundef %2, ptr noundef %11, i16 noundef zeroext %13, i1 noundef zeroext false, i32 noundef 0) #5
  %15 = icmp eq ptr %14, null
  br i1 %15, label %16, label %27

16:                                               ; preds = %12
  %17 = load i64, ptr @H5E_BTREE_g, align 8
  %18 = load i64, ptr @H5E_CANTPROTECT_g, align 8
  %19 = tail call i32 (ptr, ptr, i32, i64, i64, ptr, ...) @H5E_printf_stack(ptr noundef nonnull @.str.1, ptr noundef nonnull @__func__.H5B2__swap_leaf, i32 noundef 615, i64 noundef %17, i64 noundef %18, ptr noundef nonnull @.str.27) #5
  br label %.thread

20:                                               ; preds = %6
  %21 = tail call ptr @H5B2__protect_leaf(ptr noundef %0, ptr noundef %2, ptr noundef %11, i1 noundef zeroext false, i32 noundef 0)
  %22 = icmp eq ptr %21, null
  br i1 %22, label %23, label %27

23:                                               ; preds = %20
  %24 = load i64, ptr @H5E_BTREE_g, align 8
  %25 = load i64, ptr @H5E_CANTPROTECT_g, align 8
  %26 = tail call i32 (ptr, ptr, i32, i64, i64, ptr, ...) @H5E_printf_stack(ptr noundef nonnull @.str.1, ptr noundef nonnull @__func__.H5B2__swap_leaf, i32 noundef 631, i64 noundef %24, i64 noundef %25, ptr noundef nonnull @.str.11) #5
  br label %.thread

27:                                               ; preds = %20, %12
  %.144 = phi ptr [ %14, %12 ], [ %21, %20 ]
  %.1 = phi ptr [ @H5AC_BT2_INT, %12 ], [ @H5AC_BT2_LEAF, %20 ]
  %28 = load ptr, ptr %8, align 8
  %29 = getelementptr inbounds nuw %struct.H5B2_node_ptr_t, ptr %28, i64 %10
  %.139 = load i64, ptr %29, align 8
  %.042.in = getelementptr inbounds nuw i8, ptr %.144, i64 256
  %.042 = load ptr, ptr %.042.in, align 8
  %30 = getelementptr inbounds nuw i8, ptr %0, i64 352
  %31 = load ptr, ptr %30, align 8
  %32 = getelementptr inbounds nuw i8, ptr %0, i64 360
  %33 = load ptr, ptr %32, align 8
  %34 = load i64, ptr %33, align 8
  %35 = getelementptr inbounds i8, ptr %.042, i64 %34
  %36 = getelementptr inbounds nuw i8, ptr %0, i64 424
  %37 = load ptr, ptr %36, align 8
  %38 = getelementptr inbounds nuw i8, ptr %37, i64 16
  %39 = load i64, ptr %38, align 8
  tail call void @llvm.memcpy.p0.p0.i64(ptr align 1 %31, ptr align 1 %35, i64 %39, i1 false)
  %40 = load ptr, ptr %32, align 8
  %41 = load i64, ptr %40, align 8
  %42 = getelementptr inbounds i8, ptr %.042, i64 %41
  %43 = load ptr, ptr %36, align 8
  %44 = getelementptr inbounds nuw i8, ptr %43, i64 16
  %45 = load i64, ptr %44, align 8
  tail call void @llvm.memcpy.p0.p0.i64(ptr align 1 %42, ptr align 1 %5, i64 %45, i1 false)
  %46 = load ptr, ptr %30, align 8
  %47 = load ptr, ptr %36, align 8
  %48 = getelementptr inbounds nuw i8, ptr %47, i64 16
  %49 = load i64, ptr %48, align 8
  tail call void @llvm.memcpy.p0.p0.i64(ptr align 1 %5, ptr align 1 %46, i64 %49, i1 false)
  %50 = load i32, ptr %3, align 4
  %51 = or i32 %50, 2
  store i32 %51, ptr %3, align 4
  %52 = getelementptr inbounds nuw i8, ptr %0, i64 288
  %53 = load ptr, ptr %52, align 8
  %54 = tail call i32 @H5AC_unprotect(ptr noundef %53, ptr noundef nonnull %.1, i64 noundef %.139, ptr noundef nonnull %.144, i32 noundef 2) #5
  %55 = icmp slt i32 %54, 0
  br i1 %55, label %56, label %.thread

56:                                               ; preds = %27
  %57 = load i64, ptr @H5E_BTREE_g, align 8
  %58 = load i64, ptr @H5E_CANTUNPROTECT_g, align 8
  %59 = tail call i32 (ptr, ptr, i32, i64, i64, ptr, ...) @H5E_printf_stack(ptr noundef nonnull @.str.1, ptr noundef nonnull @__func__.H5B2__swap_leaf, i32 noundef 658, i64 noundef %57, i64 noundef %58, ptr noundef nonnull @.str.28) #5
  br label %.thread

.thread:                                          ; preds = %23, %16, %56, %27
  %.141 = phi i32 [ -1, %56 ], [ 0, %27 ], [ -1, %16 ], [ -1, %23 ]
  ret i32 %.141
}